target datalayout = "e-m:e-p270:32:32-p271:32:32-p272:64:64-i64:64-i128:128-f80:128-n8:16:32:64-S128"
target triple = "x86_64-pc-linux-gnu"

%class.symbol = type { ptr }
%class.app = type { %class.expr, ptr, i32, %struct.app_flags, [0 x ptr] }
%class.expr = type { %class.ast }
%class.ast = type { i32, i32, i32, i32 }
%struct.app_flags = type <{ i16, i8, i8 }>
%"class.datalog::rule" = type { %"class.datalog::accounted_object.base", ptr, ptr, i32, i32, i32, i32, %class.symbol, [0 x ptr] }
%"class.datalog::accounted_object.base" = type <{ ptr, ptr, %"struct.datalog::costs", %"struct.datalog::costs", i8 }>
%"struct.datalog::costs" = type { i32, i32 }

; Function Attrs: mustprogress nounwind uwtable
define linkonce_odr hidden noundef ptr @_ZNK3app8get_declEv(ptr noundef nonnull align 8 dereferenceable(32) %0) #5 comdat align 2 {
  %2 = alloca ptr, align 8
  store ptr %0, ptr %2, align 8, !tbaa !231
  %3 = load ptr, ptr %2, align 8
  %4 = getelementptr inbounds nuw %class.app, ptr %3, i32 0, i32 1
  %5 = load ptr, ptr %4, align 8, !tbaa !240
  ret ptr %5
}

; Function Attrs: mustprogress nounwind uwtable
define linkonce_odr hidden noundef ptr @_ZNK7datalog4rule8get_tailEj(ptr noundef nonnull align 8 dereferenceable(80) %0, i32 noundef %1) #5 comdat align 2 {
  %3 = alloca ptr, align 8
  %4 = alloca i32, align 4
  store ptr %0, ptr %3, align 8, !tbaa !243
  store i32 %1, ptr %4, align 4, !tbaa !32
  %5 = load ptr, ptr %3, align 8
  %6 = getelementptr inbounds nuw %"class.datalog::rule", ptr %5, i32 0, i32 8
  %7 = load i32, ptr %4, align 4, !tbaa !32
  %8 = zext i32 %7 to i64
  %9 = getelementptr inbounds nuw [0 x ptr], ptr %6, i64 0, i64 %8
  %10 = load ptr, ptr %9, align 8, !tbaa !231
  %11 = ptrtoint ptr %10 to i64
  %12 = and i64 %11, -8
  %13 = inttoptr i64 %12 to ptr
  ret ptr %13
}

; Function Attrs: mustprogress nounwind uwtable
define linkonce_odr hidden noundef zeroext i1 @_ZNK7datalog4rule11is_neg_tailEj(ptr noundef nonnull align 8 dereferenceable(80) %0, i32 noundef %1) #5 comdat align 2 {
  %3 = alloca ptr, align 8
  %4 = alloca i32, align 4
  store ptr %0, ptr %3, align 8, !tbaa !243
  store i32 %1, ptr %4, align 4, !tbaa !32
  %5 = load ptr, ptr %3, align 8
  %6 = getelementptr inbounds nuw %"class.datalog::rule", ptr %5, i32 0, i32 8
  %7 = load i32, ptr %4, align 4, !tbaa !32
  %8 = zext i32 %7 to i64
  %9 = getelementptr inbounds nuw [0 x ptr], ptr %6, i64 0, i64 %8
  %10 = load ptr, ptr %9, align 8, !tbaa !231
  %11 = ptrtoint ptr %10 to i64
  %12 = and i64 %11, 7
  %13 = icmp eq i64 %12, 1
  ret i1 %13
}

; Function Attrs: mustprogress nounwind uwtable
define linkonce_odr hidden noundef ptr @_ZNK7datalog4rule8get_declEj(ptr noundef nonnull align 8 dereferenceable(80) %0, i32 noundef %1) #5 comdat align 2 {
  %3 = alloca ptr, align 8
  %4 = alloca i32, align 4
  store ptr %0, ptr %3, align 8, !tbaa !243
  store i32 %1, ptr %4, align 4, !tbaa !32
  %5 = load ptr, ptr %3, align 8
  %6 = load i32, ptr %4, align 4, !tbaa !32
  %7 = call noundef ptr @_ZNK7datalog4rule8get_tailEj(ptr noundef nonnull align 8 dereferenceable(80) %5, i32 noundef %6)
  %8 = call noundef ptr @_ZNK3app8get_declEv(ptr noundef nonnull align 8 dereferenceable(32) %7)
  ret ptr %8
}

; Function Attrs: mustprogress nounwind uwtable
define linkonce_odr hidden noundef i32 @_ZNK7datalog4rule27get_uninterpreted_tail_sizeEv(ptr noundef nonnull align 8 dereferenceable(80) %0) #5 comdat align 2 {
  %2 = alloca ptr, align 8
  store ptr %0, ptr %2, align 8, !tbaa !243
  %3 = load ptr, ptr %2, align 8
  %4 = getelementptr inbounds nuw %"class.datalog::rule", ptr %3, i32 0, i32 6
  %5 = load i32, ptr %4, align 4, !tbaa !298
  ret i32 %5
}

; Function Attrs: mustprogress uwtable
define hidden noundef zeroext i1 @_ZNK7datalog11mk_coalesce9same_bodyERKNS_4ruleES3_(ptr noundef nonnull align 8 dereferenceable(84) %0, ptr noundef nonnull align 8 dereferenceable(80) %1, ptr noundef nonnull align 8 dereferenceable(80) %2) #4 align 2 {
  %4 = alloca i1, align 1
  %5 = alloca ptr, align 8
  %6 = alloca ptr, align 8
  %7 = alloca ptr, align 8
  %8 = alloca i32, align 4
  %9 = alloca i32, align 4
  %10 = alloca i32, align 4
  store ptr %0, ptr %5, align 8, !tbaa !3
  store ptr %1, ptr %6, align 8, !tbaa !243
  store ptr %2, ptr %7, align 8, !tbaa !243
  call void @llvm.lifetime.start.p0(i64 4, ptr %8) #3
  %11 = load ptr, ptr %6, align 8, !tbaa !243
  %12 = call noundef i32 @_ZNK7datalog4rule27get_uninterpreted_tail_sizeEv(ptr noundef nonnull align 8 dereferenceable(80) %11)
  store i32 %12, ptr %8, align 4, !tbaa !32
  %13 = load i32, ptr %8, align 4, !tbaa !32
  %14 = load ptr, ptr %7, align 8, !tbaa !243
  %15 = call noundef i32 @_ZNK7datalog4rule27get_uninterpreted_tail_sizeEv(ptr noundef nonnull align 8 dereferenceable(80) %14)
  %16 = icmp ne i32 %13, %15
  br i1 %16, label %17, label %18

17:                                               ; preds = %3
  store i1 false, ptr %4, align 1
  store i32 1, ptr %9, align 4
  br label %51

18:                                               ; preds = %3
  call void @llvm.lifetime.start.p0(i64 4, ptr %10) #3
  store i32 0, ptr %10, align 4, !tbaa !32
  br label %19

19:                                               ; preds = %45, %18
  %20 = load i32, ptr %10, align 4, !tbaa !32
  %21 = load i32, ptr %8, align 4, !tbaa !32
  %22 = icmp ult i32 %20, %21
  br i1 %22, label %24, label %23

23:                                               ; preds = %19
  store i32 2, ptr %9, align 4
  br label %48

24:                                               ; preds = %19
  %25 = load ptr, ptr %6, align 8, !tbaa !243
  %26 = load i32, ptr %10, align 4, !tbaa !32
  %27 = call noundef ptr @_ZNK7datalog4rule8get_declEj(ptr noundef nonnull align 8 dereferenceable(80) %25, i32 noundef %26)
  %28 = load ptr, ptr %7, align 8, !tbaa !243
  %29 = load i32, ptr %10, align 4, !tbaa !32
  %30 = call noundef ptr @_ZNK7datalog4rule8get_declEj(ptr noundef nonnull align 8 dereferenceable(80) %28, i32 noundef %29)
  %31 = icmp ne ptr %27, %30
  br i1 %31, label %32, label %33

32:                                               ; preds = %24
  store i1 false, ptr %4, align 1
  store i32 1, ptr %9, align 4
  br label %48

33:                                               ; preds = %24
  %34 = load ptr, ptr %6, align 8, !tbaa !243
  %35 = load i32, ptr %10, align 4, !tbaa !32
  %36 = call noundef zeroext i1 @_ZNK7datalog4rule11is_neg_tailEj(ptr noundef nonnull align 8 dereferenceable(80) %34, i32 noundef %35)
  %37 = zext i1 %36 to i32
  %38 = load ptr, ptr %7, align 8, !tbaa !243
  %39 = load i32, ptr %10, align 4, !tbaa !32
  %40 = call noundef zeroext i1 @_ZNK7datalog4rule11is_neg_tailEj(ptr noundef nonnull align 8 dereferenceable(80) %38, i32 noundef %39)
  %41 = zext i1 %40 to i32
  %42 = icmp ne i32 %37, %41
  br i1 %42, label %43, label %44

43:                                               ; preds = %33
  store i1 false, ptr %4, align 1
  store i32 1, ptr %9, align 4
  br label %48

44:                                               ; preds = %33
  br label %45

45:                                               ; preds = %44
  %46 = load i32, ptr %10, align 4, !tbaa !32
  %47 = add i32 %46, 1
  store i32 %47, ptr %10, align 4, !tbaa !32
  br label %19, !llvm.loop !321

48:                                               ; preds = %43, %32, %23
  call void @llvm.lifetime.end.p0(i64 4, ptr %10) #3
  %49 = load i32, ptr %9, align 4
  switch i32 %49, label %51 [
    i32 2, label %50
  ]

50:                                               ; preds = %48
  store i1 true, ptr %4, align 1
  store i32 1, ptr %9, align 4
  br label %51

51:                                               ; preds = %50, %48, %17
  call void @llvm.lifetime.end.p0(i64 4, ptr %8) #3
  %52 = load i1, ptr %4, align 1
  ret i1 %52
}