; Function Attrs: mustprogress nofree norecurse nosync nounwind willreturn memory(read, inaccessiblemem: none) uwtable
define hidden noundef zeroext i1 @_ZNK7datalog11mk_coalesce9same_bodyERKNS_4ruleES3_(ptr noundef nonnull readnone align 8 captures(none) dereferenceable(84) %0, ptr noundef nonnull readonly align 8 captures(none) dereferenceable(80) %1, ptr noundef nonnull readonly align 8 captures(none) dereferenceable(80) %2) local_unnamed_addr #9 align 2 {
  %4 = getelementptr inbounds nuw i8, ptr %1, i64 68
  %5 = load i32, ptr %4, align 4, !tbaa !265
  %6 = getelementptr inbounds nuw i8, ptr %2, i64 68
  %7 = load i32, ptr %6, align 4, !tbaa !265
  %.not = icmp eq i32 %5, %7
  br i1 %.not, label %.preheader, label %.loopexit

.preheader:                                       ; preds = %3
  %8 = getelementptr inbounds nuw i8, ptr %1, i64 80
  %.not2021 = icmp eq i32 %5, 0
  br i1 %.not2021, label %.loopexit, label %.lr.ph

.lr.ph:                                           ; preds = %.preheader
  %9 = getelementptr inbounds nuw i8, ptr %2, i64 80
  %wide.trip.count = zext i32 %5 to i64
  br label %11

10:                                               ; preds = %26
  %indvars.iv.next = add nuw nsw i64 %indvars.iv, 1
  %exitcond.not = icmp eq i64 %indvars.iv.next, %wide.trip.count
  br i1 %exitcond.not, label %.loopexit, label %11, !llvm.loop !290

11:                                               ; preds = %.lr.ph, %10
  %indvars.iv = phi i64 [ 0, %.lr.ph ], [ %indvars.iv.next, %10 ]
  %12 = getelementptr inbounds nuw [0 x ptr], ptr %8, i64 0, i64 %indvars.iv
  %13 = load ptr, ptr %12, align 8, !tbaa !270
  %14 = ptrtoint ptr %13 to i64
  %15 = and i64 %14, -8
  %16 = inttoptr i64 %15 to ptr
  %17 = getelementptr inbounds nuw i8, ptr %16, i64 16
  %18 = load ptr, ptr %17, align 8, !tbaa !229
  %19 = getelementptr inbounds nuw [0 x ptr], ptr %9, i64 0, i64 %indvars.iv
  %20 = load ptr, ptr %19, align 8, !tbaa !270
  %21 = ptrtoint ptr %20 to i64
  %22 = and i64 %21, -8
  %23 = inttoptr i64 %22 to ptr
  %24 = getelementptr inbounds nuw i8, ptr %23, i64 16
  %25 = load ptr, ptr %24, align 8, !tbaa !229
  %.not18 = icmp eq ptr %18, %25
  br i1 %.not18, label %26, label %.loopexit

26:                                               ; preds = %11
  %27 = and i64 %14, 7
  %28 = icmp eq i64 %27, 1
  %29 = and i64 %21, 7
  %30 = icmp eq i64 %29, 1
  %31 = xor i1 %28, %30
  br i1 %31, label %.loopexit, label %10

.loopexit:                                        ; preds = %26, %11, %10, %.preheader, %3
  %.016 = phi i1 [ false, %3 ], [ true, %.preheader ], [ false, %26 ], [ false, %11 ], [ true, %10 ]
  ret i1 %.016
}